target datalayout = "e-m:e-p270:32:32-p271:32:32-p272:64:64-i64:64-i128:128-f80:128-n8:16:32:64-S128"
target triple = "x86_64-pc-linux-gnu"

%struct.Curl_cftype = type { ptr, i32, i32, ptr, ptr, ptr, ptr, ptr, ptr, ptr, ptr, ptr, ptr, ptr, ptr, ptr }
%struct.curltime = type { i64, i32 }
%struct.Curl_easy = type { i32, i64, i64, ptr, %struct.Curl_llist_node, %struct.Curl_llist_node, i32, i32, %struct.Curl_message, %struct.easy_pollset, %struct.Names, ptr, ptr, ptr, %struct.SingleRequest, %struct.UserDefined, ptr, ptr, %struct.Progress, %struct.UrlState, ptr, %struct.PureInfo, %struct.curl_tlssessioninfo }
%struct.Curl_llist_node = type { ptr, ptr, ptr, ptr }
%struct.Curl_message = type { %struct.Curl_llist_node, %struct.CURLMsg }
%struct.CURLMsg = type { i32, ptr, %union.anon }
%union.anon = type { ptr }
%struct.easy_pollset = type { [5 x i32], i32, [5 x i8] }
%struct.Names = type { ptr, i32 }
%struct.SingleRequest = type <{ i64, i64, i64, i64, %struct.curltime, i32, i32, i32, i32, i64, i32, i32, i32, i32, ptr, ptr, %struct.bufq, i64, i64, ptr, ptr, %union.anon.0, ptr, i8, i32, [3 x i8] }>
%struct.bufq = type { ptr, ptr, ptr, ptr, i64, i64, i64, i32 }
%union.anon.0 = type { ptr }
%struct.UserDefined = type <{ ptr, ptr, ptr, ptr, ptr, ptr, i16, [6 x i8], i64, i64, i64, ptr, ptr, i64, i16, i16, [4 x i8], ptr, ptr, ptr, ptr, ptr, ptr, ptr, ptr, ptr, ptr, ptr, ptr, ptr, ptr, ptr, ptr, ptr, ptr, ptr, ptr, ptr, ptr, ptr, i32, i32, i32, i32, i32, [4 x i8], i64, i64, i64, i64, i64, i64, i64, i64, ptr, ptr, %struct.curl_mimepart, ptr, ptr, i64, i8, i8, i8, [5 x i8], %struct.ssl_config_data, %struct.ssl_config_data, ptr, i16, i8, i8, [4 x i8], %struct.ssl_general_config, i32, i32, i32, [4 x i8], ptr, ptr, i8, [7 x i8], i64, i8, i8, i8, i8, i32, ptr, ptr, ptr, i8, i8, [2 x i8], i32, [63 x ptr], [8 x ptr], i32, i32, i32, [4 x i8], ptr, ptr, ptr, ptr, ptr, i8, [3 x i8], i32, i32, i32, i64, %struct.Curl_data_priority, ptr, ptr, i64, ptr, i64, ptr, ptr, ptr, i8, [3 x i8], i32, i8, i8, i64, [6 x i8] }>
%struct.curl_mimepart = type { ptr, ptr, i32, i32, ptr, ptr, ptr, ptr, ptr, ptr, ptr, ptr, ptr, ptr, ptr, i64, %struct.mime_state, ptr, %struct.mime_encoder_state, i64 }
%struct.mime_state = type { i32, ptr, i64 }
%struct.mime_encoder_state = type { i64, i64, i64, [256 x i8] }
%struct.ssl_config_data = type { %struct.ssl_primary_config, i64, ptr, ptr, ptr, ptr, ptr, ptr, ptr, i16 }
%struct.ssl_primary_config = type { ptr, ptr, ptr, ptr, ptr, ptr, ptr, ptr, ptr, ptr, ptr, ptr, i8, i32, i8, i8 }
%struct.ssl_general_config = type { i64, i32 }
%struct.Curl_data_priority = type { ptr, ptr, i32, i8 }
%struct.Progress = type { i64, %struct.pgrs_dir, %struct.pgrs_dir, i64, i64, i32, i32, i64, i64, i64, i64, i64, i64, i64, i64, i64, %struct.curltime, %struct.curltime, %struct.curltime, %struct.curltime, [6 x i64], [6 x %struct.curltime], i32, i8 }
%struct.pgrs_dir = type { i64, i64, i64, %struct.pgrs_measure }
%struct.pgrs_measure = type { %struct.curltime, i64 }
%struct.UrlState = type { %struct.curltime, i64, i64, %struct.dynbuf, ptr, i64, ptr, i32, i32, i32, ptr, i64, i32, i64, i32, ptr, %struct.digestdata, %struct.digestdata, %struct.auth, %struct.auth, %struct.Curl_async, ptr, %struct.curltime, %struct.Curl_tree, %struct.Curl_llist, [15 x %struct.time_node], ptr, ptr, i64, i64, %struct.Curl_data_priority, ptr, ptr, ptr, %struct.urlpieces, ptr, ptr, ptr, ptr, ptr, i64, %struct.dynbuf, %struct.Curl_llist, [2 x %struct.curl_header], ptr, i32, ptr, ptr, %struct.store_netrc, %struct.dynamically_allocated_data, i8, i8, i8, i8, i32 }
%struct.digestdata = type { ptr, ptr, ptr, ptr, ptr, ptr, i32, i8, i8 }
%struct.auth = type { i64, i64, i64, i8 }
%struct.Curl_async = type { ptr, ptr, ptr, ptr, i32, i32, i8 }
%struct.Curl_tree = type { ptr, ptr, ptr, ptr, %struct.curltime, ptr }
%struct.time_node = type { %struct.Curl_llist_node, %struct.curltime, i32 }
%struct.urlpieces = type { ptr, ptr, ptr, ptr, ptr, ptr, ptr, ptr }
%struct.dynbuf = type { ptr, i64, i64, i64 }
%struct.Curl_llist = type { ptr, ptr, ptr, i64 }
%struct.curl_header = type { ptr, ptr, i64, i64, i32, ptr }
%struct.store_netrc = type { %struct.dynbuf, ptr, i8 }
%struct.dynamically_allocated_data = type { ptr, ptr, ptr, ptr, ptr, ptr, ptr, ptr, ptr, ptr, ptr, ptr, ptr }
%struct.PureInfo = type { i32, i32, i32, i64, i64, i64, i64, i64, ptr, ptr, i64, i32, %struct.ip_quadruple, i32, ptr, i32, %struct.curl_certinfo, i32, i8 }
%struct.ip_quadruple = type { [46 x i8], [46 x i8], i32, i32 }
%struct.curl_certinfo = type { i32, ptr }
%struct.curl_tlssessioninfo = type { i32, ptr }
%struct.Curl_cfilter = type { ptr, ptr, ptr, ptr, i32, i8 }
%struct.curl_trc_feat = type { ptr, i32 }
%struct.cf_he_ctx = type { i32, ptr, ptr, i32, [2 x ptr], ptr, %struct.curltime }
%struct.eyeballer = type { ptr, ptr, ptr, i32, ptr, ptr, ptr, i64, %struct.curltime, i64, i32, i32, i32, i8 }

@.str.21 = private unnamed_addr constant [24 x i8] c"shutdown -> %d, done=%d\00", align 1

; Function Attrs: nounwind uwtable
define internal i32 @cf_he_shutdown(ptr noundef %0, ptr noundef %1, ptr noundef %2) #0 {
  %4 = alloca i32, align 4
  %5 = alloca ptr, align 8
  %6 = alloca ptr, align 8
  %7 = alloca ptr, align 8
  %8 = alloca ptr, align 8
  %9 = alloca i64, align 8
  %10 = alloca i32, align 4
  %11 = alloca i32, align 4
  %12 = alloca ptr, align 8
  %13 = alloca i8, align 1
  store ptr %0, ptr %5, align 8, !tbaa !128
  store ptr %1, ptr %6, align 8, !tbaa !4
  store ptr %2, ptr %7, align 8, !tbaa !142
  call void @llvm.lifetime.start.p0(i64 8, ptr %8) #8
  %14 = load ptr, ptr %5, align 8, !tbaa !128
  %15 = getelementptr inbounds nuw %struct.Curl_cfilter, ptr %14, i32 0, i32 2
  %16 = load ptr, ptr %15, align 8, !tbaa !130
  store ptr %16, ptr %8, align 8, !tbaa !133
  call void @llvm.lifetime.start.p0(i64 8, ptr %9) #8
  call void @llvm.lifetime.start.p0(i64 4, ptr %10) #8
  store i32 0, ptr %10, align 4, !tbaa !86
  br label %17

17:                                               ; preds = %3
  br label %18

18:                                               ; preds = %17
  br label %19

19:                                               ; preds = %18
  %20 = load ptr, ptr %5, align 8, !tbaa !128
  %21 = getelementptr inbounds nuw %struct.Curl_cfilter, ptr %20, i32 0, i32 5
  %22 = load i8, ptr %21, align 4
  %23 = and i8 %22, 1
  %24 = zext i8 %23 to i32
  %25 = icmp ne i32 %24, 0
  br i1 %25, label %26, label %28

26:                                               ; preds = %19
  %27 = load ptr, ptr %7, align 8, !tbaa !142
  store i8 1, ptr %27, align 1, !tbaa !11
  store i32 0, ptr %4, align 4
  store i32 1, ptr %11, align 4
  br label %205

28:                                               ; preds = %19
  store i64 0, ptr %9, align 8, !tbaa !13
  br label %29

29:                                               ; preds = %86, %28
  %30 = load i64, ptr %9, align 8, !tbaa !13
  %31 = icmp ult i64 %30, 2
  br i1 %31, label %32, label %89

32:                                               ; preds = %29
  call void @llvm.lifetime.start.p0(i64 8, ptr %12) #8
  %33 = load ptr, ptr %8, align 8, !tbaa !133
  %34 = getelementptr inbounds nuw %struct.cf_he_ctx, ptr %33, i32 0, i32 4
  %35 = load i64, ptr %9, align 8, !tbaa !13
  %36 = getelementptr inbounds nuw [2 x ptr], ptr %34, i64 0, i64 %35
  %37 = load ptr, ptr %36, align 8, !tbaa !161
  store ptr %37, ptr %12, align 8, !tbaa !161
  call void @llvm.lifetime.start.p0(i64 1, ptr %13) #8
  store i8 0, ptr %13, align 1, !tbaa !11
  %38 = load ptr, ptr %12, align 8, !tbaa !161
  %39 = icmp ne ptr %38, null
  br i1 %39, label %40, label %53

40:                                               ; preds = %32
  %41 = load ptr, ptr %12, align 8, !tbaa !161
  %42 = getelementptr inbounds nuw %struct.eyeballer, ptr %41, i32 0, i32 5
  %43 = load ptr, ptr %42, align 8, !tbaa !149
  %44 = icmp ne ptr %43, null
  br i1 %44, label %45, label %53

45:                                               ; preds = %40
  %46 = load ptr, ptr %12, align 8, !tbaa !161
  %47 = getelementptr inbounds nuw %struct.eyeballer, ptr %46, i32 0, i32 13
  %48 = load i8, ptr %47, align 4
  %49 = lshr i8 %48, 4
  %50 = and i8 %49, 1
  %51 = zext i8 %50 to i32
  %52 = icmp ne i32 %51, 0
  br i1 %52, label %53, label %54

53:                                               ; preds = %45, %40, %32
  store i32 6, ptr %11, align 4
  br label %83

54:                                               ; preds = %45
  %55 = load ptr, ptr %12, align 8, !tbaa !161
  %56 = getelementptr inbounds nuw %struct.eyeballer, ptr %55, i32 0, i32 5
  %57 = load ptr, ptr %56, align 8, !tbaa !149
  %58 = getelementptr inbounds nuw %struct.Curl_cfilter, ptr %57, i32 0, i32 0
  %59 = load ptr, ptr %58, align 8, !tbaa !138
  %60 = getelementptr inbounds nuw %struct.Curl_cftype, ptr %59, i32 0, i32 6
  %61 = load ptr, ptr %60, align 8, !tbaa !162
  %62 = load ptr, ptr %12, align 8, !tbaa !161
  %63 = getelementptr inbounds nuw %struct.eyeballer, ptr %62, i32 0, i32 5
  %64 = load ptr, ptr %63, align 8, !tbaa !149
  %65 = load ptr, ptr %6, align 8, !tbaa !4
  %66 = call i32 %61(ptr noundef %64, ptr noundef %65, ptr noundef %13)
  %67 = load ptr, ptr %12, align 8, !tbaa !161
  %68 = getelementptr inbounds nuw %struct.eyeballer, ptr %67, i32 0, i32 11
  store i32 %66, ptr %68, align 4, !tbaa !163
  %69 = load ptr, ptr %12, align 8, !tbaa !161
  %70 = getelementptr inbounds nuw %struct.eyeballer, ptr %69, i32 0, i32 11
  %71 = load i32, ptr %70, align 4, !tbaa !163
  %72 = icmp ne i32 %71, 0
  br i1 %72, label %76, label %73

73:                                               ; preds = %54
  %74 = load i8, ptr %13, align 1, !tbaa !11, !range !83, !noundef !84
  %75 = trunc i8 %74 to i1
  br i1 %75, label %76, label %82

76:                                               ; preds = %73, %54
  %77 = load ptr, ptr %12, align 8, !tbaa !161
  %78 = getelementptr inbounds nuw %struct.eyeballer, ptr %77, i32 0, i32 13
  %79 = load i8, ptr %78, align 4
  %80 = and i8 %79, -17
  %81 = or i8 %80, 16
  store i8 %81, ptr %78, align 4
  br label %82

82:                                               ; preds = %76, %73
  store i32 0, ptr %11, align 4
  br label %83

83:                                               ; preds = %82, %53
  call void @llvm.lifetime.end.p0(i64 1, ptr %13) #8
  call void @llvm.lifetime.end.p0(i64 8, ptr %12) #8
  %84 = load i32, ptr %11, align 4
  switch i32 %84, label %207 [
    i32 0, label %85
    i32 6, label %86
  ]

85:                                               ; preds = %83
  br label %86

86:                                               ; preds = %85, %83
  %87 = load i64, ptr %9, align 8, !tbaa !13
  %88 = add i64 %87, 1
  store i64 %88, ptr %9, align 8, !tbaa !13
  br label %29, !llvm.loop !164

89:                                               ; preds = %29
  %90 = load ptr, ptr %7, align 8, !tbaa !142
  store i8 1, ptr %90, align 1, !tbaa !11
  store i64 0, ptr %9, align 8, !tbaa !13
  br label %91

91:                                               ; preds = %116, %89
  %92 = load i64, ptr %9, align 8, !tbaa !13
  %93 = icmp ult i64 %92, 2
  br i1 %93, label %94, label %119

94:                                               ; preds = %91
  %95 = load ptr, ptr %8, align 8, !tbaa !133
  %96 = getelementptr inbounds nuw %struct.cf_he_ctx, ptr %95, i32 0, i32 4
  %97 = load i64, ptr %9, align 8, !tbaa !13
  %98 = getelementptr inbounds nuw [2 x ptr], ptr %96, i64 0, i64 %97
  %99 = load ptr, ptr %98, align 8, !tbaa !161
  %100 = icmp ne ptr %99, null
  br i1 %100, label %101, label %115

101:                                              ; preds = %94
  %102 = load ptr, ptr %8, align 8, !tbaa !133
  %103 = getelementptr inbounds nuw %struct.cf_he_ctx, ptr %102, i32 0, i32 4
  %104 = load i64, ptr %9, align 8, !tbaa !13
  %105 = getelementptr inbounds nuw [2 x ptr], ptr %103, i64 0, i64 %104
  %106 = load ptr, ptr %105, align 8, !tbaa !161
  %107 = getelementptr inbounds nuw %struct.eyeballer, ptr %106, i32 0, i32 13
  %108 = load i8, ptr %107, align 4
  %109 = lshr i8 %108, 4
  %110 = and i8 %109, 1
  %111 = zext i8 %110 to i32
  %112 = icmp ne i32 %111, 0
  br i1 %112, label %115, label %113

113:                                              ; preds = %101
  %114 = load ptr, ptr %7, align 8, !tbaa !142
  store i8 0, ptr %114, align 1, !tbaa !11
  br label %115

115:                                              ; preds = %113, %101, %94
  br label %116

116:                                              ; preds = %115
  %117 = load i64, ptr %9, align 8, !tbaa !13
  %118 = add i64 %117, 1
  store i64 %118, ptr %9, align 8, !tbaa !13
  br label %91, !llvm.loop !165

119:                                              ; preds = %91
  %120 = load ptr, ptr %7, align 8, !tbaa !142
  %121 = load i8, ptr %120, align 1, !tbaa !11, !range !83, !noundef !84
  %122 = trunc i8 %121 to i1
  br i1 %122, label %123, label %156

123:                                              ; preds = %119
  store i64 0, ptr %9, align 8, !tbaa !13
  br label %124

124:                                              ; preds = %152, %123
  %125 = load i64, ptr %9, align 8, !tbaa !13
  %126 = icmp ult i64 %125, 2
  br i1 %126, label %127, label %155

127:                                              ; preds = %124
  %128 = load ptr, ptr %8, align 8, !tbaa !133
  %129 = getelementptr inbounds nuw %struct.cf_he_ctx, ptr %128, i32 0, i32 4
  %130 = load i64, ptr %9, align 8, !tbaa !13
  %131 = getelementptr inbounds nuw [2 x ptr], ptr %129, i64 0, i64 %130
  %132 = load ptr, ptr %131, align 8, !tbaa !161
  %133 = icmp ne ptr %132, null
  br i1 %133, label %134, label %151

134:                                              ; preds = %127
  %135 = load ptr, ptr %8, align 8, !tbaa !133
  %136 = getelementptr inbounds nuw %struct.cf_he_ctx, ptr %135, i32 0, i32 4
  %137 = load i64, ptr %9, align 8, !tbaa !13
  %138 = getelementptr inbounds nuw [2 x ptr], ptr %136, i64 0, i64 %137
  %139 = load ptr, ptr %138, align 8, !tbaa !161
  %140 = getelementptr inbounds nuw %struct.eyeballer, ptr %139, i32 0, i32 11
  %141 = load i32, ptr %140, align 4, !tbaa !163
  %142 = icmp ne i32 %141, 0
  br i1 %142, label %143, label %151

143:                                              ; preds = %134
  %144 = load ptr, ptr %8, align 8, !tbaa !133
  %145 = getelementptr inbounds nuw %struct.cf_he_ctx, ptr %144, i32 0, i32 4
  %146 = load i64, ptr %9, align 8, !tbaa !13
  %147 = getelementptr inbounds nuw [2 x ptr], ptr %145, i64 0, i64 %146
  %148 = load ptr, ptr %147, align 8, !tbaa !161
  %149 = getelementptr inbounds nuw %struct.eyeballer, ptr %148, i32 0, i32 11
  %150 = load i32, ptr %149, align 4, !tbaa !163
  store i32 %150, ptr %10, align 4, !tbaa !86
  br label %151

151:                                              ; preds = %143, %134, %127
  br label %152

152:                                              ; preds = %151
  %153 = load i64, ptr %9, align 8, !tbaa !13
  %154 = add i64 %153, 1
  store i64 %154, ptr %9, align 8, !tbaa !13
  br label %124, !llvm.loop !166

155:                                              ; preds = %124
  br label %156

156:                                              ; preds = %155, %119
  br label %157

157:                                              ; preds = %156
  %158 = load ptr, ptr %6, align 8, !tbaa !4
  %159 = icmp ne ptr %158, null
  br i1 %159, label %160, label %201

160:                                              ; preds = %157
  %161 = load ptr, ptr %6, align 8, !tbaa !4
  %162 = getelementptr inbounds nuw %struct.Curl_easy, ptr %161, i32 0, i32 15
  %163 = getelementptr inbounds nuw %struct.UserDefined, ptr %162, i32 0, i32 124
  %164 = load i64, ptr %163, align 2
  %165 = lshr i64 %164, 27
  %166 = and i64 %165, 1
  %167 = trunc i64 %166 to i32
  %168 = icmp ne i32 %167, 0
  br i1 %168, label %169, label %201

169:                                              ; preds = %160
  %170 = load ptr, ptr %6, align 8, !tbaa !4
  %171 = getelementptr inbounds nuw %struct.Curl_easy, ptr %170, i32 0, i32 19
  %172 = getelementptr inbounds nuw %struct.UrlState, ptr %171, i32 0, i32 47
  %173 = load ptr, ptr %172, align 8, !tbaa !135
  %174 = icmp ne ptr %173, null
  br i1 %174, label %175, label %183

175:                                              ; preds = %169
  %176 = load ptr, ptr %6, align 8, !tbaa !4
  %177 = getelementptr inbounds nuw %struct.Curl_easy, ptr %176, i32 0, i32 19
  %178 = getelementptr inbounds nuw %struct.UrlState, ptr %177, i32 0, i32 47
  %179 = load ptr, ptr %178, align 8, !tbaa !135
  %180 = getelementptr inbounds nuw %struct.curl_trc_feat, ptr %179, i32 0, i32 1
  %181 = load i32, ptr %180, align 8, !tbaa !136
  %182 = icmp sge i32 %181, 1
  br i1 %182, label %183, label %201

183:                                              ; preds = %175, %169
  %184 = load ptr, ptr %5, align 8, !tbaa !128
  %185 = icmp ne ptr %184, null
  br i1 %185, label %186, label %201

186:                                              ; preds = %183
  %187 = load ptr, ptr %5, align 8, !tbaa !128
  %188 = getelementptr inbounds nuw %struct.Curl_cfilter, ptr %187, i32 0, i32 0
  %189 = load ptr, ptr %188, align 8, !tbaa !138
  %190 = getelementptr inbounds nuw %struct.Curl_cftype, ptr %189, i32 0, i32 2
  %191 = load i32, ptr %190, align 4, !tbaa !139
  %192 = icmp sge i32 %191, 1
  br i1 %192, label %193, label %201

193:                                              ; preds = %186
  %194 = load ptr, ptr %6, align 8, !tbaa !4
  %195 = load ptr, ptr %5, align 8, !tbaa !128
  %196 = load i32, ptr %10, align 4, !tbaa !86
  %197 = load ptr, ptr %7, align 8, !tbaa !142
  %198 = load i8, ptr %197, align 1, !tbaa !11, !range !83, !noundef !84
  %199 = trunc i8 %198 to i1
  %200 = zext i1 %199 to i32
  call void (ptr, ptr, ptr, ...) @Curl_trc_cf_infof(ptr noundef %194, ptr noundef %195, ptr noundef @.str.21, i32 noundef %196, i32 noundef %200)
  br label %201

201:                                              ; preds = %193, %186, %183, %175, %160, %157
  br label %202

202:                                              ; preds = %201
  br label %203

203:                                              ; preds = %202
  %204 = load i32, ptr %10, align 4, !tbaa !86
  store i32 %204, ptr %4, align 4
  store i32 1, ptr %11, align 4
  br label %205

205:                                              ; preds = %203, %26
  call void @llvm.lifetime.end.p0(i64 4, ptr %10) #8
  call void @llvm.lifetime.end.p0(i64 8, ptr %9) #8
  call void @llvm.lifetime.end.p0(i64 8, ptr %8) #8
  %206 = load i32, ptr %4, align 4
  ret i32 %206

207:                                              ; preds = %83
  unreachable
}